target datalayout = "e-m:e-p270:32:32-p271:32:32-p272:64:64-i64:64-i128:128-f80:128-n8:16:32:64-S128"
target triple = "x86_64-unknown-linux-gnu"

%"class.grpc_core::RefCountedPtr.27" = type { ptr }
%"class.grpc_core::FakeResolver" = type <{ %"class.grpc_core::Resolver", %"class.std::shared_ptr", %"class.std::unique_ptr", %"class.grpc_core::ChannelArgs", %"class.grpc_core::RefCountedPtr.8", %"class.std::optional", i8, i8, [6 x i8] }>
%"class.grpc_core::Resolver" = type { %"class.grpc_core::InternallyRefCounted" }
%"class.grpc_core::InternallyRefCounted" = type { %"class.grpc_core::Orphanable", %"class.grpc_core::RefCount" }
%"class.grpc_core::Orphanable" = type { ptr }
%"class.grpc_core::RefCount" = type { %"struct.std::atomic" }
%"struct.std::atomic" = type { %"struct.std::__atomic_base" }
%"struct.std::__atomic_base" = type { i64 }
%"class.std::shared_ptr" = type { %"class.std::__shared_ptr" }
%"class.std::__shared_ptr" = type { ptr, %"class.std::__shared_count" }
%"class.std::__shared_count" = type { ptr }
%"class.std::unique_ptr" = type { %"struct.std::__uniq_ptr_data" }
%"struct.std::__uniq_ptr_data" = type { %"class.std::__uniq_ptr_impl" }
%"class.std::__uniq_ptr_impl" = type { %"class.std::tuple" }
%"class.std::tuple" = type { %"struct.std::_Tuple_impl" }
%"struct.std::_Tuple_impl" = type { %"struct.std::_Head_base.7" }
%"struct.std::_Head_base.7" = type { ptr }
%"class.grpc_core::ChannelArgs" = type { %"class.grpc_core::AVL" }
%"class.grpc_core::AVL" = type { %"class.grpc_core::RefCountedPtr" }
%"class.grpc_core::RefCountedPtr" = type { ptr }
%"class.grpc_core::RefCountedPtr.8" = type { ptr }
%"class.std::optional" = type { %"struct.std::_Optional_base" }
%"struct.std::_Optional_base" = type { %"struct.std::_Optional_payload" }
%"struct.std::_Optional_payload" = type { %"struct.std::_Optional_payload.base", [7 x i8] }
%"struct.std::_Optional_payload.base" = type { %"struct.std::_Optional_payload_base.base" }
%"struct.std::_Optional_payload_base.base" = type <{ %"union.std::_Optional_payload_base<grpc_core::Resolver::Result>::_Storage", i8 }>
%"union.std::_Optional_payload_base<grpc_core::Resolver::Result>::_Storage" = type { %"struct.grpc_core::Resolver::Result" }
%"struct.grpc_core::Resolver::Result" = type { %"class.absl::lts_20230802::StatusOr", %"class.absl::lts_20230802::StatusOr.17", %"class.std::__cxx11::basic_string", %"class.grpc_core::ChannelArgs", %"class.std::function" }
%"class.absl::lts_20230802::StatusOr" = type { %"class.absl::lts_20230802::internal_statusor::StatusOrData" }
%"class.absl::lts_20230802::internal_statusor::StatusOrData" = type { %union.anon.10, %union.anon.11 }
%union.anon.10 = type { %"class.absl::lts_20230802::Status" }
%"class.absl::lts_20230802::Status" = type { i64 }
%union.anon.11 = type { %"class.std::vector.12" }
%"class.std::vector.12" = type { %"struct.std::_Vector_base.13" }
%"struct.std::_Vector_base.13" = type { %"struct.std::_Vector_base<grpc_core::EndpointAddresses, std::allocator<grpc_core::EndpointAddresses>>::_Vector_impl" }
%"struct.std::_Vector_base<grpc_core::EndpointAddresses, std::allocator<grpc_core::EndpointAddresses>>::_Vector_impl" = type { %"struct.std::_Vector_base<grpc_core::EndpointAddresses, std::allocator<grpc_core::EndpointAddresses>>::_Vector_impl_data" }
%"struct.std::_Vector_base<grpc_core::EndpointAddresses, std::allocator<grpc_core::EndpointAddresses>>::_Vector_impl_data" = type { ptr, ptr, ptr }
%"class.absl::lts_20230802::StatusOr.17" = type { %"class.absl::lts_20230802::internal_statusor::StatusOrData.18" }
%"class.absl::lts_20230802::internal_statusor::StatusOrData.18" = type { %union.anon.19, %union.anon.20 }
%union.anon.19 = type { %"class.absl::lts_20230802::Status" }
%union.anon.20 = type { %"class.grpc_core::RefCountedPtr.21" }
%"class.grpc_core::RefCountedPtr.21" = type { ptr }
%"class.std::__cxx11::basic_string" = type { %"struct.std::__cxx11::basic_string<char>::_Alloc_hider", i64, %union.anon }
%"struct.std::__cxx11::basic_string<char>::_Alloc_hider" = type { ptr }
%union.anon = type { i64, [8 x i8] }
%"class.std::function" = type { %"class.std::_Function_base", ptr }
%"class.std::_Function_base" = type { %"union.std::_Any_data", ptr }
%"union.std::_Any_data" = type { %"union.std::_Nocopy_types" }
%"union.std::_Nocopy_types" = type { { i64, i64 } }
%"class.absl::lts_20230802::MutexLock" = type { ptr }
%"class.grpc_core::FakeResolverResponseGenerator" = type <{ %"class.grpc_core::RefCounted", %"class.absl::lts_20230802::Mutex", ptr, %"class.grpc_core::RefCountedPtr.27", %"class.std::optional", %"class.absl::lts_20230802::Mutex", ptr, i8, [7 x i8] }>
%"class.grpc_core::RefCounted" = type { %"class.grpc_core::PolymorphicRefCount", %"class.grpc_core::RefCount" }
%"class.grpc_core::PolymorphicRefCount" = type { ptr }
%"class.absl::lts_20230802::Mutex" = type { %"struct.std::atomic" }

@.str.1 = private unnamed_addr constant [154 x i8] c"generated/home/dtcxzyw/WorkSpace/Projects/compilers/llvm-opt-benchmark/bench/grpc/grpc/src/core/ext/filters/client_channel/resolver/fake/fake_resolver.cc\00", align 1
@.str.2 = private unnamed_addr constant [31 x i8] c"response_generator_ != nullptr\00", align 1

; Function Attrs: mustprogress nounwind uwtable
define linkonce_odr void @_ZN4absl12lts_202308029MutexLockD2Ev(ptr noundef nonnull align 8 dereferenceable(8) %this) unnamed_addr #5 comdat align 2 personality ptr @__gxx_personality_v0 {
entry:
  %this.addr = alloca ptr, align 8
  store ptr %this, ptr %this.addr, align 8
  %this1 = load ptr, ptr %this.addr, align 8
  %mu_ = getelementptr inbounds %"class.absl::lts_20230802::MutexLock", ptr %this1, i32 0, i32 0
  %0 = load ptr, ptr %mu_, align 8
  invoke void @_ZN4absl12lts_202308025Mutex6UnlockEv(ptr noundef nonnull align 8 dereferenceable(8) %0)
          to label %invoke.cont unwind label %terminate.lpad

invoke.cont:                                      ; preds = %entry
  ret void

terminate.lpad:                                   ; preds = %entry
  %1 = landingpad { ptr, i32 }
          catch ptr null
  %2 = extractvalue { ptr, i32 } %1, 0
  call void @__clang_call_terminate(ptr %2) #14
  unreachable
}

; Function Attrs: mustprogress uwtable
define linkonce_odr void @_ZN4absl12lts_202308029MutexLockC2EPNS0_5MutexE(ptr noundef nonnull align 8 dereferenceable(8) %this, ptr noundef %mu) unnamed_addr #4 comdat align 2 {
entry:
  %this.addr = alloca ptr, align 8
  %mu.addr = alloca ptr, align 8
  store ptr %this, ptr %this.addr, align 8
  store ptr %mu, ptr %mu.addr, align 8
  %this1 = load ptr, ptr %this.addr, align 8
  %mu_ = getelementptr inbounds %"class.absl::lts_20230802::MutexLock", ptr %this1, i32 0, i32 0
  %0 = load ptr, ptr %mu.addr, align 8
  store ptr %0, ptr %mu_, align 8
  %mu_2 = getelementptr inbounds %"class.absl::lts_20230802::MutexLock", ptr %this1, i32 0, i32 0
  %1 = load ptr, ptr %mu_2, align 8
  call void @_ZN4absl12lts_202308025Mutex4LockEv(ptr noundef nonnull align 8 dereferenceable(8) %1)
  ret void
}

; Function Attrs: mustprogress uwtable
define void @_ZN9grpc_core29FakeResolverResponseGenerator21ReresolutionRequestedEv(ptr noundef nonnull align 8 dereferenceable(185) %this) #4 align 2 personality ptr @__gxx_personality_v0 {
entry:
  %this.addr = alloca ptr, align 8
  %lock = alloca %"class.absl::lts_20230802::MutexLock", align 8
  %exn.slot = alloca ptr, align 8
  %ehselector.slot = alloca i32, align 4
  store ptr %this, ptr %this.addr, align 8
  %this1 = load ptr, ptr %this.addr, align 8
  %reresolution_mu_ = getelementptr inbounds %"class.grpc_core::FakeResolverResponseGenerator", ptr %this1, i32 0, i32 5
  call void @_ZN4absl12lts_202308029MutexLockC2EPNS0_5MutexE(ptr noundef nonnull align 8 dereferenceable(8) %lock, ptr noundef %reresolution_mu_)
  %reresolution_requested_ = getelementptr inbounds %"class.grpc_core::FakeResolverResponseGenerator", ptr %this1, i32 0, i32 7
  store i8 1, ptr %reresolution_requested_, align 8
  %reresolution_cv_ = getelementptr inbounds %"class.grpc_core::FakeResolverResponseGenerator", ptr %this1, i32 0, i32 6
  %0 = load ptr, ptr %reresolution_cv_, align 8
  %cmp = icmp ne ptr %0, null
  br i1 %cmp, label %if.then, label %if.end

if.then:                                          ; preds = %entry
  %reresolution_cv_2 = getelementptr inbounds %"class.grpc_core::FakeResolverResponseGenerator", ptr %this1, i32 0, i32 6
  %1 = load ptr, ptr %reresolution_cv_2, align 8
  invoke void @_ZN4absl12lts_202308027CondVar9SignalAllEv(ptr noundef nonnull align 8 dereferenceable(8) %1)
          to label %invoke.cont unwind label %lpad

invoke.cont:                                      ; preds = %if.then
  br label %if.end

lpad:                                             ; preds = %if.then
  %2 = landingpad { ptr, i32 }
          cleanup
  %3 = extractvalue { ptr, i32 } %2, 0
  store ptr %3, ptr %exn.slot, align 8
  %4 = extractvalue { ptr, i32 } %2, 1
  store i32 %4, ptr %ehselector.slot, align 4
  call void @_ZN4absl12lts_202308029MutexLockD2Ev(ptr noundef nonnull align 8 dereferenceable(8) %lock) #3
  br label %eh.resume

if.end:                                           ; preds = %invoke.cont, %entry
  call void @_ZN4absl12lts_202308029MutexLockD2Ev(ptr noundef nonnull align 8 dereferenceable(8) %lock) #3
  ret void

eh.resume:                                        ; preds = %lpad
  %exn = load ptr, ptr %exn.slot, align 8
  %sel = load i32, ptr %ehselector.slot, align 4
  %lpad.val = insertvalue { ptr, i32 } poison, ptr %exn, 0
  %lpad.val3 = insertvalue { ptr, i32 } %lpad.val, i32 %sel, 1
  resume { ptr, i32 } %lpad.val3
}

; Function Attrs: mustprogress nounwind uwtable
define linkonce_odr noundef ptr @_ZNK9grpc_core13RefCountedPtrINS_29FakeResolverResponseGeneratorEEptEv(ptr noundef nonnull align 8 dereferenceable(8) %this) #5 comdat align 2 {
entry:
  %this.addr = alloca ptr, align 8
  store ptr %this, ptr %this.addr, align 8
  %this1 = load ptr, ptr %this.addr, align 8
  %value_ = getelementptr inbounds %"class.grpc_core::RefCountedPtr.8", ptr %this1, i32 0, i32 0
  %0 = load ptr, ptr %value_, align 8
  ret ptr %0
}

; Function Attrs: mustprogress nounwind uwtable
define linkonce_odr noundef zeroext i1 @_ZNK9grpc_core13RefCountedPtrINS_29FakeResolverResponseGeneratorEEneEDn(ptr noundef nonnull align 8 dereferenceable(8) %this, ptr %0) #5 comdat align 2 {
entry:
  %this.addr = alloca ptr, align 8
  %.addr = alloca ptr, align 8
  store ptr %this, ptr %this.addr, align 8
  store ptr %0, ptr %.addr, align 8
  %this1 = load ptr, ptr %this.addr, align 8
  %value_ = getelementptr inbounds %"class.grpc_core::RefCountedPtr.8", ptr %this1, i32 0, i32 0
  %1 = load ptr, ptr %value_, align 8
  %cmp = icmp ne ptr %1, null
  ret i1 %cmp
}

; Function Attrs: mustprogress uwtable
define void @_ZN9grpc_core12FakeResolver25RequestReresolutionLockedEv(ptr noundef nonnull align 8 dereferenceable(186) %this) unnamed_addr #4 align 2 {
entry:
  %this.addr = alloca ptr, align 8
  store ptr %this, ptr %this.addr, align 8
  %this1 = load ptr, ptr %this.addr, align 8
  br label %do.body

do.body:                                          ; preds = %entry
  %response_generator_ = getelementptr inbounds %"class.grpc_core::FakeResolver", ptr %this1, i32 0, i32 4
  %call = call noundef zeroext i1 @_ZNK9grpc_core13RefCountedPtrINS_29FakeResolverResponseGeneratorEEneEDn(ptr noundef nonnull align 8 dereferenceable(8) %response_generator_, ptr null)
  %lnot = xor i1 %call, true
  br i1 %lnot, label %if.then, label %if.end

if.then:                                          ; preds = %do.body
  call void @gpr_assertion_failed(ptr noundef @.str.1, i32 noundef 99, ptr noundef @.str.2) #15
  unreachable

if.end:                                           ; preds = %do.body
  br label %do.end

do.end:                                           ; preds = %if.end
  %response_generator_2 = getelementptr inbounds %"class.grpc_core::FakeResolver", ptr %this1, i32 0, i32 4
  %call3 = call noundef ptr @_ZNK9grpc_core13RefCountedPtrINS_29FakeResolverResponseGeneratorEEptEv(ptr noundef nonnull align 8 dereferenceable(8) %response_generator_2)
  call void @_ZN9grpc_core29FakeResolverResponseGenerator21ReresolutionRequestedEv(ptr noundef nonnull align 8 dereferenceable(185) %call3)
  ret void
}