; Function Attrs: mustprogress uwtable
define void @_ZN9grpc_core12FakeResolver25RequestReresolutionLockedEv(ptr nocapture noundef nonnull readonly align 8 dereferenceable(186) %this) unnamed_addr #3 align 2 personality ptr @__gxx_personality_v0 {
entry:
  %response_generator_ = getelementptr inbounds i8, ptr %this, i64 48
  %0 = load ptr, ptr %response_generator_, align 8
  %cmp.i.not = icmp eq ptr %0, null
  br i1 %cmp.i.not, label %if.then, label %do.end

if.then:                                          ; preds = %entry
  tail call void @gpr_assertion_failed(ptr noundef nonnull @.str.1, i32 noundef 99, ptr noundef nonnull @.str.2) #19
  unreachable

do.end:                                           ; preds = %entry
  %reresolution_mu_.i = getelementptr inbounds i8, ptr %0, i64 168
  tail call void @_ZN4absl12lts_202308025Mutex4LockEv(ptr noundef nonnull align 8 dereferenceable(8) %reresolution_mu_.i)
  %reresolution_requested_.i = getelementptr inbounds i8, ptr %0, i64 184
  store i8 1, ptr %reresolution_requested_.i, align 8
  %reresolution_cv_.i = getelementptr inbounds i8, ptr %0, i64 176
  %1 = load ptr, ptr %reresolution_cv_.i, align 8
  %cmp.not.i = icmp eq ptr %1, null
  br i1 %cmp.not.i, label %if.end.i, label %if.then.i

if.then.i:                                        ; preds = %do.end
  invoke void @_ZN4absl12lts_202308027CondVar9SignalAllEv(ptr noundef nonnull align 8 dereferenceable(8) %1)
          to label %if.end.i unwind label %lpad.i

lpad.i:                                           ; preds = %if.then.i
  %2 = landingpad { ptr, i32 }
          cleanup
  invoke void @_ZN4absl12lts_202308025Mutex6UnlockEv(ptr noundef nonnull align 8 dereferenceable(8) %reresolution_mu_.i)
          to label %_ZN4absl12lts_202308029MutexLockD2Ev.exit.i unwind label %terminate.lpad.i.i

terminate.lpad.i.i:                               ; preds = %lpad.i
  %3 = landingpad { ptr, i32 }
          catch ptr null
  %4 = extractvalue { ptr, i32 } %3, 0
  tail call void @__clang_call_terminate(ptr %4) #18
  unreachable

_ZN4absl12lts_202308029MutexLockD2Ev.exit.i:      ; preds = %lpad.i
  resume { ptr, i32 } %2

if.end.i:                                         ; preds = %if.then.i, %do.end
  invoke void @_ZN4absl12lts_202308025Mutex6UnlockEv(ptr noundef nonnull align 8 dereferenceable(8) %reresolution_mu_.i)
          to label %_ZN9grpc_core29FakeResolverResponseGenerator21ReresolutionRequestedEv.exit unwind label %terminate.lpad.i1.i

terminate.lpad.i1.i:                              ; preds = %if.end.i
  %5 = landingpad { ptr, i32 }
          catch ptr null
  %6 = extractvalue { ptr, i32 } %5, 0
  tail call void @__clang_call_terminate(ptr %6) #18
  unreachable

_ZN9grpc_core29FakeResolverResponseGenerator21ReresolutionRequestedEv.exit: ; preds = %if.end.i
  ret void
}